# mark_description "Intel(R) C Intel(R) 64 Compiler Classic for applications running on Intel(R) 64, Version 2021.10.0 Build 202";
# mark_description "30609_000000";
# mark_description "-Wl,-rpath,/apps/SPACK/0.19.1/opt/linux-almalinux8-icelake/gcc-8.5.0/intel-oneapi-compilers-2023.2.1-axze7oc";
# mark_description "bc5zpklxb6kr5h2d5hbpf2lxk/compiler/2023.2.1/linux/lib -Wl,-rpath,/apps/SPACK/0.19.1/opt/linux-almalinux8-ice";
# mark_description "lake/gcc-8.5.0/intel-oneapi-compilers-2023.2.1-axze7ocbc5zpklxb6kr5h2d5hbpf2lxk/compiler/2023.2.1/linux/lib/";
# mark_description "x64 -Wl,-rpath,/apps/SPACK/0.19.1/opt/linux-almalinux8-icelake/gcc-8.5.0/intel-oneapi-compilers-2023.2.1-axz";
# mark_description "e7ocbc5zpklxb6kr5h2d5hbpf2lxk/compiler/2023.2.1/linux/lib/oclfpga/host/linux64/lib -Wl,-rpath,/apps/SPACK/0.";
# mark_description "19.1/opt/linux-almalinux8-icelake/gcc-8.5.0/intel-oneapi-compilers-2023.2.1-axze7ocbc5zpklxb6kr5h2d5hbpf2lxk";
# mark_description "/compiler/2023.2.1/linux/lib/oclfpga/linux64/lib -Wl,-rpath,/apps/SPACK/0.19.1/opt/linux-almalinux8-icelake/";
# mark_description "gcc-8.5.0/intel-oneapi-compilers-2023.2.1-axze7ocbc5zpklxb6kr5h2d5hbpf2lxk/compiler/2023.2.1/linux/compiler/";
# mark_description "lib/intel64_lin -gcc-name=/usr/bin/gcc -gxx-name=/usr/bin/g++ -Ofast -qopenmp-simd -xHost -qopt-zmm-usage=lo";
# mark_description "w -fargument-noalias -funroll-loops -fno-builtin -diag-disable=10441 -S -o ./tmp_multiarray/spr/multiarray_s";
# mark_description "pr24.s";
	.file "multiarray_spr.cpp"
	.text
..TXTST0:
.L_2__routine_start_main_0:
# -- Begin  main
	.text
# mark_begin;
       .align    16,0x90
	.globl main
# --- main(int, char **)
main:
# parameter 1: %edi
# parameter 2: %rsi
..B1.1:                         # Preds ..B1.0
                                # Execution count [1.00e+00]
	.cfi_startproc
	.cfi_personality 0x3,__gxx_personality_v0
..___tag_value_main.1:
..L2:
                                                          #17.33
        pushq     %rbp                                          #17.33
	.cfi_def_cfa_offset 16
        movq      %rsp, %rbp                                    #17.33
	.cfi_def_cfa 6, 16
	.cfi_offset 6, -16
        andq      $-128, %rsp                                   #17.33
        pushq     %r12                                          #17.33
        pushq     %r13                                          #17.33
        pushq     %r14                                          #17.33
        pushq     %r15                                          #17.33
        pushq     %rbx                                          #17.33
        subq      $344, %rsp                                    #17.33
        movl      $3, %edi                                      #17.33
        movq      $0x64199d9ffe, %rsi                           #17.33
        call      __intel_new_feature_proc_init                 #17.33
	.cfi_escape 0x10, 0x03, 0x0e, 0x38, 0x1c, 0x0d, 0x80, 0xff, 0xff, 0xff, 0x1a, 0x0d, 0xd8, 0xff, 0xff, 0xff, 0x22
	.cfi_escape 0x10, 0x0c, 0x0e, 0x38, 0x1c, 0x0d, 0x80, 0xff, 0xff, 0xff, 0x1a, 0x0d, 0xf8, 0xff, 0xff, 0xff, 0x22
	.cfi_escape 0x10, 0x0d, 0x0e, 0x38, 0x1c, 0x0d, 0x80, 0xff, 0xff, 0xff, 0x1a, 0x0d, 0xf0, 0xff, 0xff, 0xff, 0x22
	.cfi_escape 0x10, 0x0e, 0x0e, 0x38, 0x1c, 0x0d, 0x80, 0xff, 0xff, 0xff, 0x1a, 0x0d, 0xe8, 0xff, 0xff, 0xff, 0x22
	.cfi_escape 0x10, 0x0f, 0x0e, 0x38, 0x1c, 0x0d, 0x80, 0xff, 0xff, 0xff, 0x1a, 0x0d, 0xe0, 0xff, 0xff, 0xff, 0x22
                                # LOE
..B1.84:                        # Preds ..B1.1
                                # Execution count [1.00e+00]
        vstmxcsr  (%rsp)                                        #17.33
        movl      $2400, %edi                                   #31.12
        orl       $32832, (%rsp)                                #17.33
        vldmxcsr  (%rsp)                                        #17.33
..___tag_value_main.11:
#       operator new[](unsigned long)
        call      _Znam                                         #31.12
..___tag_value_main.12:
                                # LOE rax
..B1.83:                        # Preds ..B1.84
                                # Execution count [1.00e+00]
        movq      %rax, %r15                                    #31.12
                                # LOE r15
..B1.2:                         # Preds ..B1.83
                                # Execution count [1.00e+00]
        movl      $2400, %edi                                   #32.13
..___tag_value_main.13:
#       operator new[](unsigned long)
        call      _Znam                                         #32.13
..___tag_value_main.14:
                                # LOE rax r15
..B1.85:                        # Preds ..B1.2
                                # Execution count [1.00e+00]
        movq      %rax, 168(%rsp)                               #32.13[spill]
                                # LOE r15
..B1.3:                         # Preds ..B1.85
                                # Execution count [1.00e+00]
        movl      $2400, %edi                                   #33.13
..___tag_value_main.16:
#       operator new[](unsigned long)
        call      _Znam                                         #33.13
..___tag_value_main.17:
                                # LOE rax r15
..B1.86:                        # Preds ..B1.3
                                # Execution count [1.00e+00]
        movq      %rax, 176(%rsp)                               #33.13[spill]
                                # LOE r15
..B1.4:                         # Preds ..B1.86
                                # Execution count [1.00e+00]
        movl      $2400, %edi                                   #34.13
..___tag_value_main.19:
#       operator new[](unsigned long)
        call      _Znam                                         #34.13
..___tag_value_main.20:
                                # LOE rax r15
..B1.87:                        # Preds ..B1.4
                                # Execution count [1.00e+00]
        movq      %rax, 184(%rsp)                               #34.13[spill]
                                # LOE r15
..B1.5:                         # Preds ..B1.87
                                # Execution count [1.00e+00]
        movl      $2400, %edi                                   #35.13
..___tag_value_main.22:
#       operator new[](unsigned long)
        call      _Znam                                         #35.13
..___tag_value_main.23:
                                # LOE rax r15
..B1.88:                        # Preds ..B1.5
                                # Execution count [1.00e+00]
        movq      %rax, 192(%rsp)                               #35.13[spill]
                                # LOE r15
..B1.6:                         # Preds ..B1.88
                                # Execution count [1.00e+00]
        movl      $2400, %edi                                   #36.13
..___tag_value_main.25:
#       operator new[](unsigned long)
        call      _Znam                                         #36.13
..___tag_value_main.26:
                                # LOE rax r15
..B1.89:                        # Preds ..B1.6
                                # Execution count [1.00e+00]
        movq      %rax, 200(%rsp)                               #36.13[spill]
                                # LOE r15
..B1.7:                         # Preds ..B1.89
                                # Execution count [1.00e+00]
        movl      $2400, %edi                                   #37.13
..___tag_value_main.28:
#       operator new[](unsigned long)
        call      _Znam                                         #37.13
..___tag_value_main.29:
                                # LOE rax r15
..B1.90:                        # Preds ..B1.7
                                # Execution count [1.00e+00]
        movq      %rax, 208(%rsp)                               #37.13[spill]
                                # LOE r15
..B1.8:                         # Preds ..B1.90
                                # Execution count [1.00e+00]
        movl      $2400, %edi                                   #38.13
..___tag_value_main.31:
#       operator new[](unsigned long)
        call      _Znam                                         #38.13
..___tag_value_main.32:
                                # LOE rax r15
..B1.91:                        # Preds ..B1.8
                                # Execution count [1.00e+00]
        movq      %rax, %r12                                    #38.13
                                # LOE r12 r15
..B1.9:                         # Preds ..B1.91
                                # Execution count [1.00e+00]
        movl      $2400, %edi                                   #39.13
..___tag_value_main.33:
#       operator new[](unsigned long)
        call      _Znam                                         #39.13
..___tag_value_main.34:
                                # LOE rax r12 r15
..B1.92:                        # Preds ..B1.9
                                # Execution count [1.00e+00]
        movq      %rax, 224(%rsp)                               #39.13[spill]
                                # LOE r12 r15
..B1.10:                        # Preds ..B1.92
                                # Execution count [1.00e+00]
        movl      $2400, %edi                                   #40.13
..___tag_value_main.36:
#       operator new[](unsigned long)
        call      _Znam                                         #40.13
..___tag_value_main.37:
                                # LOE rax r12 r15
..B1.93:                        # Preds ..B1.10
                                # Execution count [1.00e+00]
        movq      %rax, 232(%rsp)                               #40.13[spill]
                                # LOE r12 r15
..B1.11:                        # Preds ..B1.93
                                # Execution count [1.00e+00]
        movl      $2400, %edi                                   #41.13
..___tag_value_main.39:
#       operator new[](unsigned long)
        call      _Znam                                         #41.13
..___tag_value_main.40:
                                # LOE rax r12 r15
..B1.94:                        # Preds ..B1.11
                                # Execution count [1.00e+00]
        movq      %rax, 312(%rsp)                               #41.13[spill]
                                # LOE r12 r15
..B1.12:                        # Preds ..B1.94
                                # Execution count [1.00e+00]
        movl      $2400, %edi                                   #42.13
..___tag_value_main.42:
#       operator new[](unsigned long)
        call      _Znam                                         #42.13
..___tag_value_main.43:
                                # LOE rax r12 r15
..B1.95:                        # Preds ..B1.12
                                # Execution count [1.00e+00]
        movq      %rax, 320(%rsp)                               #42.13[spill]
                                # LOE r12 r15
..B1.13:                        # Preds ..B1.95
                                # Execution count [1.00e+00]
        movl      $2400, %edi                                   #43.13
..___tag_value_main.45:
#       operator new[](unsigned long)
        call      _Znam                                         #43.13
..___tag_value_main.46:
                                # LOE rax r12 r15
..B1.96:                        # Preds ..B1.13
                                # Execution count [1.00e+00]
        movq      %rax, 64(%rsp)                                #43.13[spill]
                                # LOE r12 r15
..B1.14:                        # Preds ..B1.96
                                # Execution count [1.00e+00]
        movl      $2400, %edi                                   #44.13
..___tag_value_main.48:
#       operator new[](unsigned long)
        call      _Znam                                         #44.13
..___tag_value_main.49:
                                # LOE rax r12 r15
..B1.97:                        # Preds ..B1.14
                                # Execution count [1.00e+00]
        movq      %rax, 72(%rsp)                                #44.13[spill]
                                # LOE r12 r15
..B1.15:                        # Preds ..B1.97
                                # Execution count [1.00e+00]
        movl      $2400, %edi                                   #45.13
..___tag_value_main.51:
#       operator new[](unsigned long)
        call      _Znam                                         #45.13
..___tag_value_main.52:
                                # LOE rax r12 r15
..B1.98:                        # Preds ..B1.15
                                # Execution count [1.00e+00]
        movq      %rax, %rbx                                    #45.13
                                # LOE rbx r12 r15
..B1.16:                        # Preds ..B1.98
                                # Execution count [1.00e+00]
        movl      $2400, %edi                                   #46.13
..___tag_value_main.53:
#       operator new[](unsigned long)
        call      _Znam                                         #46.13
..___tag_value_main.54:
                                # LOE rax rbx r12 r15
..B1.99:                        # Preds ..B1.16
                                # Execution count [1.00e+00]
        movq      %rax, 88(%rsp)                                #46.13[spill]
                                # LOE rbx r12 r15
..B1.17:                        # Preds ..B1.99
                                # Execution count [1.00e+00]
        movl      $2400, %edi                                   #47.12
..___tag_value_main.56:
#       operator new[](unsigned long)
        call      _Znam                                         #47.12
..___tag_value_main.57:
                                # LOE rax rbx r12 r15
..B1.100:                       # Preds ..B1.17
                                # Execution count [1.00e+00]
        movq      %rax, 96(%rsp)                                #47.12[spill]
                                # LOE rbx r12 r15
..B1.18:                        # Preds ..B1.100
                                # Execution count [1.00e+00]
        movl      $2400, %edi                                   #48.12
..___tag_value_main.59:
#       operator new[](unsigned long)
        call      _Znam                                         #48.12
..___tag_value_main.60:
                                # LOE rax rbx r12 r15
..B1.101:                       # Preds ..B1.18
                                # Execution count [1.00e+00]
        movq      %rax, 104(%rsp)                               #48.12[spill]
                                # LOE rbx r12 r15
..B1.19:                        # Preds ..B1.101
                                # Execution count [1.00e+00]
        movl      $2400, %edi                                   #49.12
..___tag_value_main.62:
#       operator new[](unsigned long)
        call      _Znam                                         #49.12
..___tag_value_main.63:
                                # LOE rax rbx r12 r15
..B1.102:                       # Preds ..B1.19
                                # Execution count [1.00e+00]
        movq      %rax, 304(%rsp)                               #49.12[spill]
                                # LOE rbx r12 r15
..B1.20:                        # Preds ..B1.102
                                # Execution count [1.00e+00]
        movl      $2400, %edi                                   #50.12
..___tag_value_main.65:
#       operator new[](unsigned long)
        call      _Znam                                         #50.12
..___tag_value_main.66:
                                # LOE rax rbx r12 r15
..B1.103:                       # Preds ..B1.20
                                # Execution count [1.00e+00]
        movq      %rax, 112(%rsp)                               #50.12[spill]
                                # LOE rbx r12 r15
..B1.21:                        # Preds ..B1.103
                                # Execution count [1.00e+00]
        movl      $2400, %edi                                   #51.12
..___tag_value_main.68:
#       operator new[](unsigned long)
        call      _Znam                                         #51.12
..___tag_value_main.69:
                                # LOE rax rbx r12 r15
..B1.104:                       # Preds ..B1.21
                                # Execution count [1.00e+00]
        movq      %rax, 120(%rsp)                               #51.12[spill]
                                # LOE rbx r12 r15
..B1.22:                        # Preds ..B1.104
                                # Execution count [1.00e+00]
        movl      $2400, %edi                                   #52.12
..___tag_value_main.71:
#       operator new[](unsigned long)
        call      _Znam                                         #52.12
..___tag_value_main.72:
                                # LOE rax rbx r12 r15
..B1.105:                       # Preds ..B1.22
                                # Execution count [1.00e+00]
        movq      %rax, %r13                                    #52.12
                                # LOE rbx r12 r13 r15
..B1.23:                        # Preds ..B1.105
                                # Execution count [1.00e+00]
        movl      $2400, %edi                                   #53.12
..___tag_value_main.73:
#       operator new[](unsigned long)
        call      _Znam                                         #53.12
..___tag_value_main.74:
                                # LOE rax rbx r12 r13 r15
..B1.106:                       # Preds ..B1.23
                                # Execution count [1.00e+00]
        movq      %rax, 40(%rsp)                                #53.12[spill]
                                # LOE rbx r12 r13 r15
..B1.24:                        # Preds ..B1.106
                                # Execution count [1.00e+00]
        movl      $2400, %edi                                   #54.12
..___tag_value_main.76:
#       operator new[](unsigned long)
        call      _Znam                                         #54.12
..___tag_value_main.77:
                                # LOE rax rbx r12 r13 r15
..B1.107:                       # Preds ..B1.24
                                # Execution count [1.00e+00]
        movq      %rax, 48(%rsp)                                #54.12[spill]
                                # LOE rbx r12 r13 r15
..B1.25:                        # Preds ..B1.107
                                # Execution count [1.00e+00]
        movl      $2400, %edi                                   #55.12
..___tag_value_main.79:
#       operator new[](unsigned long)
        call      _Znam                                         #55.12
..___tag_value_main.80:
                                # LOE rax rbx r12 r13 r15
..B1.108:                       # Preds ..B1.25
                                # Execution count [1.00e+00]
        movq      %rax, 32(%rsp)                                #55.12[spill]
                                # LOE rbx r12 r13 r15
..B1.26:                        # Preds ..B1.108
                                # Execution count [1.00e+00]
        xorb      %dl, %dl                                      #59.3
        xorl      %eax, %eax                                    #59.3
        vxorpd    %ymm0, %ymm0, %ymm0                           #61.19
        movb      %dl, (%rsp)                                   #59.3[spill]
        movq      %r13, 128(%rsp)                               #59.3[spill]
        movq      %rbx, 80(%rsp)                                #59.3[spill]
        movq      %r12, 216(%rsp)                               #59.3[spill]
        movq      %r15, 160(%rsp)                               #59.3[spill]
                                # LOE rax ymm0
..B1.27:                        # Preds ..B1.29 ..B1.26
                                # Execution count [3.00e+00]
        movq      192(%rsp), %rbx                               #65.1[spill]
        xorl      %r14d, %r14d                                  #60.5
        movq      200(%rsp), %rdx                               #66.1[spill]
        movq      160(%rsp), %r13                               #61.7[spill]
        movq      168(%rsp), %r11                               #62.1[spill]
        lea       (%rbx,%rax), %rcx                             #65.1
        movq      312(%rsp), %rbx                               #71.1[spill]
        lea       (%rdx,%rax), %r15                             #66.1
        movq      320(%rsp), %rdx                               #72.1[spill]
        lea       (%r13,%rax), %r12                             #61.7
        movq      176(%rsp), %r9                                #63.1[spill]
        lea       (%r11,%rax), %r10                             #62.1
        movq      184(%rsp), %rdi                               #64.1[spill]
        movq      %rcx, 264(%rsp)                               #65.1[spill]
        lea       (%rbx,%rax), %rcx                             #71.1
        movq      %r15, 272(%rsp)                               #66.1[spill]
        lea       (%rdx,%rax), %r15                             #72.1
        movq      %rcx, 136(%rsp)                               #71.1[spill]
        lea       (%r9,%rax), %r8                               #63.1
        movq      208(%rsp), %r13                               #67.1[spill]
        lea       (%rdi,%rax), %rsi                             #64.1
        movq      216(%rsp), %r11                               #68.1[spill]
        movq      224(%rsp), %r9                                #69.1[spill]
        movq      232(%rsp), %rdi                               #70.1[spill]
        movq      128(%rsp), %rcx                               #82.1[spill]
        movq      %r15, 8(%rsp)                                 #72.1[spill]
        movq      40(%rsp), %r15                                #83.1[spill]
        movq      %r12, 152(%rsp)                               #61.7[spill]
        lea       (%r13,%rax), %r12                             #67.1
        movq      %r10, 240(%rsp)                               #62.1[spill]
        lea       (%r11,%rax), %r10                             #68.1
        movq      %r8, 248(%rsp)                                #63.1[spill]
        lea       (%r9,%rax), %r8                               #69.1
        movq      %rsi, 256(%rsp)                               #64.1[spill]
        lea       (%rdi,%rax), %rsi                             #70.1
        movq      %r12, 280(%rsp)                               #67.1[spill]
        lea       (%rcx,%rax), %rdx                             #82.1
        movq      %r10, 288(%rsp)                               #68.1[spill]
        lea       (%r15,%rax), %rcx                             #83.1
        movq      %r8, 296(%rsp)                                #69.1[spill]
        movq      %rsi, 144(%rsp)                               #70.1[spill]
        movq      %rdx, 56(%rsp)                                #82.1[spill]
        movq      32(%rsp), %r15                                #85.1[spill]
        movq      64(%rsp), %r13                                #73.1[spill]
        movq      72(%rsp), %r12                                #74.1[spill]
        movq      80(%rsp), %r11                                #75.1[spill]
        addq      %rax, %r15                                    #85.1
        movq      88(%rsp), %r10                                #76.1[spill]
        addq      %rax, %r13                                    #73.1
        movq      96(%rsp), %r9                                 #77.1[spill]
        addq      %rax, %r12                                    #74.1
        movq      104(%rsp), %r8                                #78.1[spill]
        addq      %rax, %r11                                    #75.1
        movq      304(%rsp), %rdi                               #79.1[spill]
        addq      %rax, %r10                                    #76.1
        movq      112(%rsp), %rsi                               #80.1[spill]
        addq      %rax, %r9                                     #77.1
        movq      120(%rsp), %rbx                               #81.1[spill]
        addq      %rax, %r8                                     #78.1
        movq      48(%rsp), %rdx                                #84.1[spill]
        addq      %rax, %rdi                                    #79.1
        movq      %rax, 16(%rsp)                                #85.1[spill]
        addq      %rax, %rsi                                    #80.1
        movq      %r15, 24(%rsp)                                #85.1[spill]
        addq      %rax, %rbx                                    #81.1
        addq      %rax, %rdx                                    #84.1
        movq      8(%rsp), %rax                                 #85.1[spill]
                                # LOE rax rdx rcx rbx rsi rdi r8 r9 r10 r11 r12 r13 r14 ymm0
..B1.28:                        # Preds ..B1.28 ..B1.27
                                # Execution count [3.00e+02]
        movq      152(%rsp), %r15                               #61.7[spill]
        vmovupd   %ymm0, (%rax,%r14,8)                          #72.1
        vmovupd   %ymm0, (%r13,%r14,8)                          #73.1
        vmovupd   %ymm0, (%r15,%r14,8)                          #61.7
        vmovupd   %ymm0, (%r12,%r14,8)                          #74.1
        vmovupd   %ymm0, (%r11,%r14,8)                          #75.1
        vmovupd   %ymm0, (%r10,%r14,8)                          #76.1
        vmovupd   %ymm0, (%r9,%r14,8)                           #77.1
        vmovupd   %ymm0, (%r8,%r14,8)                           #78.1
        vmovupd   %ymm0, (%rdi,%r14,8)                          #79.1
        vmovupd   %ymm0, (%rsi,%r14,8)                          #80.1
        vmovupd   %ymm0, (%rbx,%r14,8)                          #81.1
        vmovupd   %ymm0, (%rcx,%r14,8)                          #83.1
        vmovupd   %ymm0, (%rdx,%r14,8)                          #84.1
        movq      240(%rsp), %r15                               #62.1[spill]
        vmovupd   %ymm0, (%r15,%r14,8)                          #62.1
        movq      248(%rsp), %r15                               #63.1[spill]
        vmovupd   %ymm0, (%r15,%r14,8)                          #63.1
        movq      256(%rsp), %r15                               #64.1[spill]
        vmovupd   %ymm0, (%r15,%r14,8)                          #64.1
        movq      264(%rsp), %r15                               #65.1[spill]
        vmovupd   %ymm0, (%r15,%r14,8)                          #65.1
        movq      272(%rsp), %r15                               #66.1[spill]
        vmovupd   %ymm0, (%r15,%r14,8)                          #66.1
        movq      280(%rsp), %r15                               #67.1[spill]
        vmovupd   %ymm0, (%r15,%r14,8)                          #67.1
        movq      288(%rsp), %r15                               #68.1[spill]
        vmovupd   %ymm0, (%r15,%r14,8)                          #68.1
        movq      296(%rsp), %r15                               #69.1[spill]
        vmovupd   %ymm0, (%r15,%r14,8)                          #69.1
        movq      144(%rsp), %r15                               #70.1[spill]
        vmovupd   %ymm0, (%r15,%r14,8)                          #70.1
        movq      136(%rsp), %r15                               #71.1[spill]
        vmovupd   %ymm0, (%r15,%r14,8)                          #71.1
        movq      56(%rsp), %r15                                #82.1[spill]
        vmovupd   %ymm0, (%r15,%r14,8)                          #82.1
        movq      24(%rsp), %r15                                #85.1[spill]
        vmovupd   %ymm0, (%r15,%r14,8)                          #85.1
        addq      $4, %r14                                      #60.5
        cmpq      $100, %r14                                    #60.5
        jb        ..B1.28       # Prob 99%                      #60.5
                                # LOE rax rdx rcx rbx rsi rdi r8 r9 r10 r11 r12 r13 r14 ymm0
..B1.29:                        # Preds ..B1.28
                                # Execution count [3.00e+00]
        movb      (%rsp), %dl                                   #59.3[spill]
        incb      %dl                                           #59.3
        movq      16(%rsp), %rax                                #[spill]
        addq      $800, %rax                                    #59.3
        movb      %dl, (%rsp)                                   #59.3[spill]
        cmpb      $3, %dl                                       #59.3
        jb        ..B1.27       # Prob 66%                      #59.3
                                # LOE rax ymm0
..B1.30:                        # Preds ..B1.29
                                # Execution count [1.00e+00]
        movq      184(%rsp), %rcx                               #96.2[spill]
        movq      168(%rsp), %rax                               #92.2[spill]
        movq      176(%rsp), %rdx                               #94.2[spill]
        vmovsd    .L_2il0floatpacket.3(%rip), %xmm0             #90.9
        vmovsd    %xmm0, (%rcx)                                 #96.2
        vmovsd    %xmm0, 792(%rcx)                              #95.1
        vmovsd    %xmm0, 800(%rcx)                              #96.2
        vmovsd    %xmm0, 1592(%rcx)                             #95.1
        vmovsd    %xmm0, 1600(%rcx)                             #96.2
        vmovsd    %xmm0, 2392(%rcx)                             #95.1
        vmovsd    %xmm0, (%rax)                                 #92.2
        vmovsd    %xmm0, 792(%rax)                              #91.1
        vmovsd    %xmm0, (%rdx)                                 #94.2
        vmovsd    %xmm0, 792(%rdx)                              #93.1
        vmovsd    %xmm0, 800(%rax)                              #92.2
        vmovsd    %xmm0, 1592(%rax)                             #91.1
        vmovsd    %xmm0, 800(%rdx)                              #94.2
        vmovsd    %xmm0, 1592(%rdx)                             #93.1
        vmovsd    %xmm0, 1600(%rax)                             #92.2
        vmovsd    %xmm0, 2392(%rax)                             #91.1
        vmovsd    %xmm0, 1600(%rdx)                             #94.2
        vmovsd    %xmm0, 2392(%rdx)                             #93.1
        movq      72(%rsp), %rcx                                #116.2[spill]
        movq      320(%rsp), %rax                               #112.2[spill]
        movq      64(%rsp), %rdx                                #114.2[spill]
        vmovsd    %xmm0, (%rcx)                                 #116.2
        vmovsd    %xmm0, 792(%rcx)                              #115.1
        vmovsd    %xmm0, 800(%rcx)                              #116.2
        vmovsd    %xmm0, 1592(%rcx)                             #115.1
        vmovsd    %xmm0, 1600(%rcx)                             #116.2
        vmovsd    %xmm0, 2392(%rcx)                             #115.1
        movq      192(%rsp), %rsi                               #98.2[spill]
        movq      208(%rsp), %r9                                #102.2[spill]
        movq      104(%rsp), %rcx                               #124.2[spill]
        vmovsd    %xmm0, (%rax)                                 #112.2
        vmovsd    %xmm0, 792(%rax)                              #111.1
        vmovsd    %xmm0, (%rdx)                                 #114.2
        vmovsd    %xmm0, 792(%rdx)                              #113.1
        vmovsd    %xmm0, 800(%rax)                              #112.2
        vmovsd    %xmm0, 1592(%rax)                             #111.1
        vmovsd    %xmm0, 800(%rdx)                              #114.2
        vmovsd    %xmm0, 1592(%rdx)                             #113.1
        vmovsd    %xmm0, 1600(%rax)                             #112.2
        vmovsd    %xmm0, 2392(%rax)                             #111.1
        vmovsd    %xmm0, 1600(%rdx)                             #114.2
        vmovsd    %xmm0, 2392(%rdx)                             #113.1
        movq      200(%rsp), %r8                                #100.2[spill]
        movq      88(%rsp), %rax                                #120.2[spill]
        movq      96(%rsp), %rdx                                #122.2[spill]
        vmovsd    %xmm0, (%rsi)                                 #98.2
        vmovsd    %xmm0, 792(%rsi)                              #97.1
        vmovsd    %xmm0, (%r9)                                  #102.2
        vmovsd    %xmm0, 792(%r9)                               #101.1
        vmovsd    %xmm0, 800(%rsi)                              #98.2
        vmovsd    %xmm0, 1592(%rsi)                             #97.1
        vmovsd    %xmm0, 800(%r9)                               #102.2
        vmovsd    %xmm0, 1592(%r9)                              #101.1
        vmovsd    %xmm0, 1600(%rsi)                             #98.2
        vmovsd    %xmm0, 2392(%rsi)                             #97.1
        vmovsd    %xmm0, 1600(%r9)                              #102.2
        vmovsd    %xmm0, 2392(%r9)                              #101.1
        vmovsd    %xmm0, (%rcx)                                 #124.2
        vmovsd    %xmm0, 792(%rcx)                              #123.1
        vmovsd    %xmm0, 800(%rcx)                              #124.2
        vmovsd    %xmm0, 1592(%rcx)                             #123.1
        vmovsd    %xmm0, 1600(%rcx)                             #124.2
        vmovsd    %xmm0, 2392(%rcx)                             #123.1
        vmovsd    %xmm0, (%r8)                                  #100.2
        vmovsd    %xmm0, 792(%r8)                               #99.1
        vmovsd    %xmm0, 800(%r8)                               #100.2
        vmovsd    %xmm0, 1592(%r8)                              #99.1
        vmovsd    %xmm0, 1600(%r8)                              #100.2
        vmovsd    %xmm0, 2392(%r8)                              #99.1
        movq      224(%rsp), %r10                               #106.2[spill]
        movq      232(%rsp), %r11                               #108.2[spill]
        movq      304(%rsp), %rsi                               #126.2[spill]
        movq      120(%rsp), %r9                                #130.2[spill]
        movq      32(%rsp), %rcx                                #138.2[spill]
        vmovsd    %xmm0, (%rax)                                 #120.2
        vmovsd    %xmm0, 792(%rax)                              #119.1
        vmovsd    %xmm0, (%rdx)                                 #122.2
        vmovsd    %xmm0, 792(%rdx)                              #121.1
        vmovsd    %xmm0, 800(%rax)                              #120.2
        vmovsd    %xmm0, 1592(%rax)                             #119.1
        vmovsd    %xmm0, 800(%rdx)                              #122.2
        vmovsd    %xmm0, 1592(%rdx)                             #121.1
        vmovsd    %xmm0, 1600(%rax)                             #120.2
        vmovsd    %xmm0, 2392(%rax)                             #119.1
        vmovsd    %xmm0, 1600(%rdx)                             #122.2
        vmovsd    %xmm0, 2392(%rdx)                             #121.1
        movq      312(%rsp), %r14                               #110.2[spill]
        movq      112(%rsp), %r8                                #128.2[spill]
        movq      40(%rsp), %rax                                #134.2[spill]
        movq      48(%rsp), %rdx                                #136.2[spill]
        movq      128(%rsp), %r13                               #[spill]
        movq      80(%rsp), %rbx                                #[spill]
        movq      216(%rsp), %r12                               #[spill]
        movq      160(%rsp), %r15                               #[spill]
        vmovsd    %xmm0, (%r10)                                 #106.2
        vmovsd    %xmm0, 792(%r10)                              #105.1
        vmovsd    %xmm0, (%r11)                                 #108.2
        vmovsd    %xmm0, 792(%r11)                              #107.1
        vmovsd    %xmm0, 800(%r10)                              #106.2
        vmovsd    %xmm0, 1592(%r10)                             #105.1
        vmovsd    %xmm0, 800(%r11)                              #108.2
        vmovsd    %xmm0, 1592(%r11)                             #107.1
        vmovsd    %xmm0, 1600(%r10)                             #106.2
        vmovsd    %xmm0, 2392(%r10)                             #105.1
        vmovsd    %xmm0, 1600(%r11)                             #108.2
        vmovsd    %xmm0, 2392(%r11)                             #107.1
        vmovsd    %xmm0, (%rsi)                                 #126.2
        vmovsd    %xmm0, 792(%rsi)                              #125.1
        vmovsd    %xmm0, (%r9)                                  #130.2
        vmovsd    %xmm0, 792(%r9)                               #129.1
        vmovsd    %xmm0, 800(%rsi)                              #126.2
        vmovsd    %xmm0, 1592(%rsi)                             #125.1
        vmovsd    %xmm0, 800(%r9)                               #130.2
        vmovsd    %xmm0, 1592(%r9)                              #129.1
        vmovsd    %xmm0, 1600(%rsi)                             #126.2
        vmovsd    %xmm0, 2392(%rsi)                             #125.1
        vmovsd    %xmm0, 1600(%r9)                              #130.2
        vmovsd    %xmm0, 2392(%r9)                              #129.1
        vmovsd    %xmm0, (%rcx)                                 #138.2
        vmovsd    %xmm0, 792(%rcx)                              #137.1
        vmovsd    %xmm0, 800(%rcx)                              #138.2
        vmovsd    %xmm0, 1592(%rcx)                             #137.1
        vmovsd    %xmm0, 1600(%rcx)                             #138.2
        vmovsd    %xmm0, 2392(%rcx)                             #137.1
        vmovsd    %xmm0, (%r15)                                 #90.9
        vmovsd    %xmm0, 792(%r15)                              #89.9
        vmovsd    %xmm0, (%r12)                                 #104.2
        vmovsd    %xmm0, 800(%r15)                              #90.9
        vmovsd    %xmm0, 1592(%r15)                             #89.9
        vmovsd    %xmm0, 800(%r12)                              #104.2
        vmovsd    %xmm0, 1600(%r15)                             #90.9
        vmovsd    %xmm0, 2392(%r15)                             #89.9
        vmovsd    %xmm0, 1600(%r12)                             #104.2
        vmovsd    %xmm0, 792(%r12)                              #103.1
        vmovsd    %xmm0, (%r14)                                 #110.2
        vmovsd    %xmm0, 792(%r14)                              #109.1
        vmovsd    %xmm0, (%rbx)                                 #118.2
        vmovsd    %xmm0, 1592(%r12)                             #103.1
        vmovsd    %xmm0, 800(%r14)                              #110.2
        vmovsd    %xmm0, 1592(%r14)                             #109.1
        vmovsd    %xmm0, 800(%rbx)                              #118.2
        vmovsd    %xmm0, 2392(%r12)                             #103.1
        vmovsd    %xmm0, 1600(%r14)                             #110.2
        vmovsd    %xmm0, 2392(%r14)                             #109.1
        vmovsd    %xmm0, 1600(%rbx)                             #118.2
        vmovsd    %xmm0, 792(%rbx)                              #117.1
        vmovsd    %xmm0, (%r8)                                  #128.2
        vmovsd    %xmm0, 792(%r8)                               #127.1
        vmovsd    %xmm0, (%r13)                                 #132.2
        vmovsd    %xmm0, 1592(%rbx)                             #117.1
        vmovsd    %xmm0, 800(%r8)                               #128.2
        vmovsd    %xmm0, 1592(%r8)                              #127.1
        vmovsd    %xmm0, 800(%r13)                              #132.2
        vmovsd    %xmm0, 2392(%rbx)                             #117.1
        vmovsd    %xmm0, 1600(%r8)                              #128.2
        vmovsd    %xmm0, 2392(%r8)                              #127.1
        movq      %r9, %r8                                      #140.3
        vmovsd    %xmm0, 1600(%r13)                             #132.2
        vmovsd    %xmm0, 792(%r13)                              #131.1
        vmovsd    %xmm0, (%rax)                                 #134.2
        vmovsd    %xmm0, 792(%rax)                              #133.1
        vmovsd    %xmm0, (%rdx)                                 #136.2
        vmovsd    %xmm0, 792(%rdx)                              #135.1
        vmovsd    %xmm0, 1592(%r13)                             #131.1
        vmovsd    %xmm0, 800(%rax)                              #134.2
        vmovsd    %xmm0, 1592(%rax)                             #133.1
        vmovsd    %xmm0, 800(%rdx)                              #136.2
        vmovsd    %xmm0, 1592(%rdx)                             #135.1
        vmovsd    %xmm0, 2392(%r13)                             #131.1
        vmovsd    %xmm0, 1600(%rax)                             #134.2
        vmovsd    %xmm0, 2392(%rax)                             #133.1
        xorl      %eax, %eax                                    #140.3
        vmovsd    %xmm0, 1600(%rdx)                             #136.2
        vmovsd    %xmm0, 2392(%rdx)                             #135.1
        movq      %rcx, %rdx                                    #140.3
        movq      48(%rsp), %rcx                                #140.3[spill]
        movq      40(%rsp), %rsi                                #140.3[spill]
        movq      112(%rsp), %r9                                #140.3[spill]
        movq      304(%rsp), %r10                               #140.3[spill]
        movq      104(%rsp), %r11                               #140.3[spill]
                                # LOE rax rdx rcx rbx rsi r8 r9 r10 r11 r12 r13 r15 xmm0
..B1.31:                        # Preds ..B1.31 ..B1.30
                                # Execution count [1.00e+02]
        vmovsd    %xmm0, (%rdx,%rax,8)                          #189.1
        vmovsd    %xmm0, 1600(%rdx,%rax,8)                      #190.2
        vmovsd    %xmm0, (%rcx,%rax,8)                          #187.1
        vmovsd    %xmm0, 1600(%rcx,%rax,8)                      #188.2
        vmovsd    %xmm0, (%rsi,%rax,8)                          #185.1
        vmovsd    %xmm0, 1600(%rsi,%rax,8)                      #186.2
        vmovsd    %xmm0, (%r13,%rax,8)                          #183.1
        vmovsd    %xmm0, 1600(%r13,%rax,8)                      #184.2
        vmovsd    %xmm0, (%r8,%rax,8)                           #181.1
        vmovsd    %xmm0, 1600(%r8,%rax,8)                       #182.2
        vmovsd    %xmm0, (%r9,%rax,8)                           #179.1
        vmovsd    %xmm0, 1600(%r9,%rax,8)                       #180.2
        vmovsd    %xmm0, (%r10,%rax,8)                          #177.1
        vmovsd    %xmm0, 1600(%r10,%rax,8)                      #178.2
        vmovsd    %xmm0, (%r11,%rax,8)                          #175.1
        vmovsd    %xmm0, 1600(%r11,%rax,8)                      #176.2
        incq      %rax                                          #140.3
        cmpq      $100, %rax                                    #140.3
        jb        ..B1.31       # Prob 99%                      #140.3
                                # LOE rax rdx rcx rbx rsi r8 r9 r10 r11 r12 r13 r15 xmm0
..B1.32:                        # Preds ..B1.31
                                # Execution count [1.00e+00]
        vmovsd    .L_2il0floatpacket.3(%rip), %xmm0             #140.3
        xorl      %eax, %eax                                    #140.3
        movq      96(%rsp), %rdx                                #140.3[spill]
        movq      88(%rsp), %rcx                                #140.3[spill]
        movq      72(%rsp), %rsi                                #140.3[spill]
        movq      64(%rsp), %r8                                 #140.3[spill]
        movq      320(%rsp), %r9                                #140.3[spill]
        movq      312(%rsp), %r10                               #140.3[spill]
        movq      232(%rsp), %r11                               #140.3[spill]
                                # LOE rax rdx rcx rbx rsi r8 r9 r10 r11 r12 r13 r15 xmm0
..B1.33:                        # Preds ..B1.33 ..B1.32
                                # Execution count [1.00e+02]
        vmovsd    %xmm0, (%rdx,%rax,8)                          #173.1
        vmovsd    %xmm0, 1600(%rdx,%rax,8)                      #174.2
        vmovsd    %xmm0, (%rcx,%rax,8)                          #171.1
        vmovsd    %xmm0, 1600(%rcx,%rax,8)                      #172.2
        vmovsd    %xmm0, (%rbx,%rax,8)                          #169.1
        vmovsd    %xmm0, 1600(%rbx,%rax,8)                      #170.2
        vmovsd    %xmm0, (%rsi,%rax,8)                          #167.1
        vmovsd    %xmm0, 1600(%rsi,%rax,8)                      #168.2
        vmovsd    %xmm0, (%r8,%rax,8)                           #165.1
        vmovsd    %xmm0, 1600(%r8,%rax,8)                       #166.2
        vmovsd    %xmm0, (%r9,%rax,8)                           #163.1
        vmovsd    %xmm0, 1600(%r9,%rax,8)                       #164.2
        vmovsd    %xmm0, (%r10,%rax,8)                          #161.1
        vmovsd    %xmm0, 1600(%r10,%rax,8)                      #162.2
        vmovsd    %xmm0, (%r11,%rax,8)                          #159.1
        vmovsd    %xmm0, 1600(%r11,%rax,8)                      #160.2
        incq      %rax                                          #140.3
        cmpq      $100, %rax                                    #140.3
        jb        ..B1.33       # Prob 99%                      #140.3
                                # LOE rax rdx rcx rbx rsi r8 r9 r10 r11 r12 r13 r15 xmm0
..B1.34:                        # Preds ..B1.33
                                # Execution count [1.00e+00]
        vmovsd    .L_2il0floatpacket.3(%rip), %xmm0             #140.3
        xorl      %eax, %eax                                    #140.3
        movq      224(%rsp), %rdx                               #140.3[spill]
        movq      208(%rsp), %rcx                               #140.3[spill]
        movq      200(%rsp), %rsi                               #140.3[spill]
        movq      192(%rsp), %r8                                #140.3[spill]
        movq      184(%rsp), %r9                                #140.3[spill]
        movq      176(%rsp), %r10                               #140.3[spill]
        movq      168(%rsp), %r11                               #140.3[spill]
                                # LOE rax rdx rcx rbx rsi r8 r9 r10 r11 r12 r13 r15 xmm0
..B1.35:                        # Preds ..B1.35 ..B1.34
                                # Execution count [1.00e+02]
        vmovsd    %xmm0, (%rdx,%rax,8)                          #157.1
        vmovsd    %xmm0, 1600(%rdx,%rax,8)                      #158.2
        vmovsd    %xmm0, (%r12,%rax,8)                          #155.1
        vmovsd    %xmm0, 1600(%r12,%rax,8)                      #156.2
        vmovsd    %xmm0, (%rcx,%rax,8)                          #153.1
        vmovsd    %xmm0, 1600(%rcx,%rax,8)                      #154.2
        vmovsd    %xmm0, (%rsi,%rax,8)                          #151.1
        vmovsd    %xmm0, 1600(%rsi,%rax,8)                      #152.2
        vmovsd    %xmm0, (%r8,%rax,8)                           #149.1
        vmovsd    %xmm0, 1600(%r8,%rax,8)                       #150.2
        vmovsd    %xmm0, (%r9,%rax,8)                           #147.1
        vmovsd    %xmm0, 1600(%r9,%rax,8)                       #148.2
        vmovsd    %xmm0, (%r10,%rax,8)                          #145.1
        vmovsd    %xmm0, 1600(%r10,%rax,8)                      #146.2
        vmovsd    %xmm0, (%r11,%rax,8)                          #143.1
        vmovsd    %xmm0, 1600(%r11,%rax,8)                      #144.2
        incq      %rax                                          #140.3
        cmpq      $100, %rax                                    #140.3
        jb        ..B1.35       # Prob 99%                      #140.3
                                # LOE rax rdx rcx rbx rsi r8 r9 r10 r11 r12 r13 r15 xmm0
..B1.36:                        # Preds ..B1.35
                                # Execution count [1.00e+00]
        vmovsd    .L_2il0floatpacket.3(%rip), %xmm0             #140.3
        xorb      %dl, %dl                                      #140.3
        xorl      %eax, %eax                                    #140.3
                                # LOE rax rbx r12 r13 r15 dl xmm0
..B1.37:                        # Preds ..B1.37 ..B1.36
                                # Execution count [5.00e+01]
        incb      %dl                                           #140.3
        vmovsd    %xmm0, (%rax,%r15)                            #141.9
        vmovsd    %xmm0, 1600(%rax,%r15)                        #142.9
        vmovsd    %xmm0, 8(%rax,%r15)                           #141.9
        vmovsd    %xmm0, 1608(%rax,%r15)                        #142.9
        addq      $16, %rax                                     #140.3
        cmpb      $50, %dl                                      #140.3
        jb        ..B1.37       # Prob 98%                      #140.3
                                # LOE rax rbx r12 r13 r15 dl xmm0
..B1.38:                        # Preds ..B1.37
                                # Execution count [1.00e+00]
        movl      $1, %r14d                                     #193.3
        lea       (%rsp), %rsi                                  #200.17
        movl      %r14d, %edi                                   #200.17
        vzeroupper                                              #200.17
..___tag_value_main.188:
#       clock_gettime(clockid_t, timespec *)
        call      clock_gettime                                 #200.17
..___tag_value_main.189:
                                # LOE rbx r12 r13 r15 r14d
..B1.39:                        # Preds ..B1.38
                                # Execution count [9.00e-01]
        vxorpd    %xmm0, %xmm0, %xmm0                           #200.17
        vxorpd    %xmm1, %xmm1, %xmm1                           #200.17
        vcvtsi2sdq 8(%rsp), %xmm0, %xmm0                        #200.17
        vcvtsi2sdq (%rsp), %xmm1, %xmm1                         #200.17
        vmovsd    .L_2il0floatpacket.0(%rip), %xmm2             #200.17
        vfmadd231sd %xmm2, %xmm0, %xmm1                         #200.17
        movq      %r13, 128(%rsp)                               #207.27[spill]
        movq      %rbx, 80(%rsp)                                #207.27[spill]
        movq      %r12, 216(%rsp)                               #207.27[spill]
        vmovsd    %xmm1, 56(%rsp)                               #207.27[spill]
        movq      32(%rsp), %rbx                                #207.27[spill]
        movq      48(%rsp), %r12                                #207.27[spill]
        movq      40(%rsp), %r13                                #207.27[spill]
                                # LOE rbx r12 r13 r15 r14d
..B1.40:                        # Preds ..B1.52 ..B1.39
                                # Execution count [5.00e+00]
        xorl      %edx, %edx                                    #236.3
        movq      1592(%r15), %rax                              #236.15
        movl      %r14d, 136(%rsp)                              #236.15[spill]
        movl      %edx, 152(%rsp)                               #236.15[spill]
        movq      %rax, 144(%rsp)                               #236.15[spill]
        movq      %r15, 160(%rsp)                               #236.15[spill]
        vmovsd    .L_2il0floatpacket.1(%rip), %xmm0             #236.15
        movq      128(%rsp), %r14                               #236.15[spill]
        movq      120(%rsp), %r11                               #236.15[spill]
        movq      112(%rsp), %r10                               #236.15[spill]
        movq      104(%rsp), %rdx                               #236.15[spill]
        movq      96(%rsp), %rcx                                #236.15[spill]
        movq      88(%rsp), %rsi                                #236.15[spill]
        movq      80(%rsp), %rdi                                #236.15[spill]
        movq      72(%rsp), %r8                                 #236.15[spill]
        movq      64(%rsp), %r9                                 #236.15[spill]
                                # LOE rdx rcx rbx rsi rdi r8 r9 r10 r11 r12 r13 r14 xmm0
..B1.42:                        # Preds ..B1.40 ..B1.47
                                # Execution count [2.78e+01]
        movq      232(%rsp), %rdx                               #206.11[spill]
        xorl      %eax, %eax                                    #206.11
        movq      224(%rsp), %rcx                               #206.11[spill]
        movq      216(%rsp), %rsi                               #206.11[spill]
        movq      208(%rsp), %rdi                               #206.11[spill]
        movq      200(%rsp), %r8                                #206.11[spill]
        movq      192(%rsp), %r9                                #206.11[spill]
        movq      184(%rsp), %r10                               #206.11[spill]
        movq      176(%rsp), %r11                               #206.11[spill]
        movq      168(%rsp), %r14                               #206.11[spill]
        movq      160(%rsp), %r15                               #206.11[spill]
                                # LOE rax rdx rcx rbx rsi rdi r8 r9 r10 r11 r12 r13 r14 r15 xmm0
..B1.43:                        # Preds ..B1.43 ..B1.42
                                # Execution count [2.72e+03]
        vmovsd    800(%r15,%rax,8), %xmm1                       #208.19
        vmovsd    800(%r14,%rax,8), %xmm6                       #211.25
        vmovsd    800(%r11,%rax,8), %xmm11                      #212.25
        vmovsd    800(%r10,%rax,8), %xmm16                      #213.25
        vmovsd    800(%r9,%rax,8), %xmm21                       #214.25
        vmovsd    800(%r8,%rax,8), %xmm26                       #215.25
        vmovsd    800(%rdi,%rax,8), %xmm31                      #216.25
        vaddsd    1608(%r15,%rax,8), %xmm1, %xmm2               #208.33
        vaddsd    1608(%r14,%rax,8), %xmm6, %xmm7               #211.42
        vaddsd    1608(%r11,%rax,8), %xmm11, %xmm12             #212.42
        vaddsd    1608(%r10,%rax,8), %xmm16, %xmm17             #213.42
        vaddsd    1608(%r9,%rax,8), %xmm21, %xmm22              #214.42
        vaddsd    816(%r15,%rax,8), %xmm2, %xmm3                #209.19
        vaddsd    816(%r14,%rax,8), %xmm7, %xmm8                #211.59
        vaddsd    816(%r11,%rax,8), %xmm12, %xmm13              #212.59
        vaddsd    1608(%r8,%rax,8), %xmm26, %xmm27              #215.42
        vaddsd    1608(%rdi,%rax,8), %xmm31, %xmm1              #216.42
        vaddsd    8(%r15,%rax,8), %xmm3, %xmm4                  #209.33
        vaddsd    8(%r14,%rax,8), %xmm8, %xmm9                  #211.76
        vaddsd    8(%r11,%rax,8), %xmm13, %xmm14                #212.76
        vaddsd    816(%r10,%rax,8), %xmm17, %xmm18              #213.59
        vaddsd    816(%r9,%rax,8), %xmm22, %xmm23               #214.59
        vmulsd    %xmm4, %xmm0, %xmm5                           #209.33
        vaddsd    816(%r8,%rax,8), %xmm27, %xmm28               #215.59
        vaddsd    816(%rdi,%rax,8), %xmm1, %xmm2                #216.59
        vmulsd    %xmm9, %xmm0, %xmm10                          #211.76
        vaddsd    8(%r10,%rax,8), %xmm18, %xmm19                #213.76
        vmulsd    %xmm14, %xmm0, %xmm15                         #212.76
        vaddsd    8(%r9,%rax,8), %xmm23, %xmm24                 #214.76
        vaddsd    8(%r8,%rax,8), %xmm28, %xmm29                 #215.76
        vaddsd    8(%rdi,%rax,8), %xmm2, %xmm3                  #216.76
        vmulsd    %xmm19, %xmm0, %xmm20                         #213.76
        vmulsd    %xmm24, %xmm0, %xmm25                         #214.76
        vmulsd    %xmm29, %xmm0, %xmm30                         #215.76
        vmulsd    %xmm3, %xmm0, %xmm4                           #216.76
        vmovsd    %xmm5, 808(%r15,%rax,8)                       #207.15
        vmovsd    %xmm10, 808(%r14,%rax,8)                      #211.1
        vmovsd    %xmm15, 808(%r11,%rax,8)                      #212.1
        vmovsd    800(%rsi,%rax,8), %xmm5                       #217.25
        vmovsd    800(%rcx,%rax,8), %xmm10                      #218.25
        vmovsd    800(%rdx,%rax,8), %xmm15                      #219.25
        vmovsd    %xmm20, 808(%r10,%rax,8)                      #213.1
        vmovsd    %xmm25, 808(%r9,%rax,8)                       #214.1
        vmovsd    %xmm30, 808(%r8,%rax,8)                       #215.1
        vmovsd    %xmm4, 808(%rdi,%rax,8)                       #216.1
        vaddsd    1608(%rsi,%rax,8), %xmm5, %xmm6               #217.42
        vaddsd    1608(%rcx,%rax,8), %xmm10, %xmm11             #218.42
        vaddsd    1608(%rdx,%rax,8), %xmm15, %xmm16             #219.42
        vaddsd    816(%rsi,%rax,8), %xmm6, %xmm7                #217.59
        vaddsd    816(%rcx,%rax,8), %xmm11, %xmm12              #218.59
        vaddsd    816(%rdx,%rax,8), %xmm16, %xmm17              #219.59
        vaddsd    8(%rsi,%rax,8), %xmm7, %xmm8                  #217.76
        vaddsd    8(%rcx,%rax,8), %xmm12, %xmm13                #218.76
        .byte     144                                           #219.76
        vaddsd    8(%rdx,%rax,8), %xmm17, %xmm18                #219.76
        vmulsd    %xmm8, %xmm0, %xmm9                           #217.76
        vmulsd    %xmm13, %xmm0, %xmm14                         #218.76
        vmulsd    %xmm18, %xmm0, %xmm19                         #219.76
        vmovsd    %xmm9, 808(%rsi,%rax,8)                       #217.1
        vmovsd    %xmm14, 808(%rcx,%rax,8)                      #218.1
        vmovsd    %xmm19, 808(%rdx,%rax,8)                      #219.1
        incq      %rax                                          #206.11
        cmpq      $98, %rax                                     #206.11
        jb        ..B1.43       # Prob 98%                      #206.11
                                # LOE rax rdx rcx rbx rsi rdi r8 r9 r10 r11 r12 r13 r14 r15 xmm0
..B1.44:                        # Preds ..B1.43
                                # Execution count [2.78e+01]
        movq      128(%rsp), %r14                               #[spill]
        movq      120(%rsp), %r11                               #[spill]
        movq      112(%rsp), %r10                               #[spill]
        movq      104(%rsp), %rdx                               #[spill]
        movq      96(%rsp), %rcx                                #[spill]
        movq      88(%rsp), %rsi                                #[spill]
        movq      80(%rsp), %rdi                                #[spill]
        movq      72(%rsp), %r8                                 #[spill]
        movq      64(%rsp), %r9                                 #[spill]
                                # LOE rdx rcx rbx rsi rdi r8 r9 r10 r11 r12 r13 r14 xmm0
..B1.45:                        # Preds ..B1.44
                                # Execution count [2.78e+01]
        xorl      %eax, %eax                                    #206.11
                                # LOE rax rdx rcx rbx rsi rdi r8 r9 r10 r11 r12 r13 r14 xmm0
..B1.46:                        # Preds ..B1.46 ..B1.45
                                # Execution count [2.72e+03]
        movq      312(%rsp), %r15                               #220.25[spill]
        vmovsd    800(%r9,%rax,8), %xmm11                       #222.25
        vmovsd    800(%r8,%rax,8), %xmm16                       #223.25
        vmovsd    800(%r15,%rax,8), %xmm1                       #220.25
        vmovsd    800(%rdi,%rax,8), %xmm21                      #224.25
        vmovsd    800(%rsi,%rax,8), %xmm26                      #225.25
        vmovsd    800(%rcx,%rax,8), %xmm31                      #226.24
        vaddsd    1608(%r15,%rax,8), %xmm1, %xmm2               #220.42
        vaddsd    1608(%r9,%rax,8), %xmm11, %xmm12              #222.42
        vaddsd    1608(%r8,%rax,8), %xmm16, %xmm17              #223.42
        vaddsd    1608(%rdi,%rax,8), %xmm21, %xmm22             #224.42
        vaddsd    1608(%rsi,%rax,8), %xmm26, %xmm27             #225.42
        vaddsd    816(%r15,%rax,8), %xmm2, %xmm3                #220.59
        vaddsd    1608(%rcx,%rax,8), %xmm31, %xmm1              #226.40
        vaddsd    816(%r9,%rax,8), %xmm12, %xmm13               #222.59
        vaddsd    816(%r8,%rax,8), %xmm17, %xmm18               #223.59
        vaddsd    816(%rdi,%rax,8), %xmm22, %xmm23              #224.59
        vaddsd    8(%r15,%rax,8), %xmm3, %xmm4                  #220.76
        vaddsd    816(%rsi,%rax,8), %xmm27, %xmm28              #225.59
        vaddsd    816(%rcx,%rax,8), %xmm1, %xmm2                #226.56
        vaddsd    8(%r9,%rax,8), %xmm13, %xmm14                 #222.76
        vaddsd    8(%r8,%rax,8), %xmm18, %xmm19                 #223.76
        vmulsd    %xmm4, %xmm0, %xmm5                           #220.76
        vaddsd    8(%rdi,%rax,8), %xmm23, %xmm24                #224.76
        vaddsd    8(%rsi,%rax,8), %xmm28, %xmm29                #225.76
        vaddsd    8(%rcx,%rax,8), %xmm2, %xmm3                  #226.72
        vmulsd    %xmm14, %xmm0, %xmm15                         #222.76
        vmulsd    %xmm19, %xmm0, %xmm20                         #223.76
        vmulsd    %xmm24, %xmm0, %xmm25                         #224.76
        vmulsd    %xmm29, %xmm0, %xmm30                         #225.76
        vmulsd    %xmm3, %xmm0, %xmm4                           #226.72
        vmovsd    %xmm5, 808(%r15,%rax,8)                       #220.1
        movq      320(%rsp), %r15                               #221.25[spill]
        vmovsd    800(%rdx,%rax,8), %xmm5                       #227.24
        vmovsd    %xmm15, 808(%r9,%rax,8)                       #222.1
        vmovsd    800(%r15,%rax,8), %xmm6                       #221.25
        vmovsd    %xmm20, 808(%r8,%rax,8)                       #223.1
        vmovsd    %xmm25, 808(%rdi,%rax,8)                      #224.1
        vmovsd    %xmm30, 808(%rsi,%rax,8)                      #225.1
        vmovsd    %xmm4, 808(%rcx,%rax,8)                       #226.1
        vmovsd    800(%r10,%rax,8), %xmm15                      #229.24
        vmovsd    800(%r11,%rax,8), %xmm20                      #230.24
        vmovsd    800(%r14,%rax,8), %xmm25                      #231.24
        .byte     144                                           #232.24
        vmovsd    800(%r13,%rax,8), %xmm30                      #232.24
        vmovsd    800(%r12,%rax,8), %xmm4                       #233.24
        vaddsd    1608(%r15,%rax,8), %xmm6, %xmm7               #221.42
        vaddsd    1608(%rdx,%rax,8), %xmm5, %xmm6               #227.40
        vaddsd    1608(%r10,%rax,8), %xmm15, %xmm16             #229.40
        vaddsd    1608(%r11,%rax,8), %xmm20, %xmm21             #230.40
        vaddsd    1608(%r14,%rax,8), %xmm25, %xmm26             #231.40
        vaddsd    816(%r15,%rax,8), %xmm7, %xmm8                #221.59
        vaddsd    816(%rdx,%rax,8), %xmm6, %xmm7                #227.56
        vaddsd    1608(%r13,%rax,8), %xmm30, %xmm31             #232.40
        .byte     102                                           #233.40
        .byte     144                                           #233.40
        vaddsd    1608(%r12,%rax,8), %xmm4, %xmm5               #233.40
        vaddsd    816(%r10,%rax,8), %xmm16, %xmm17              #229.56
        vaddsd    8(%r15,%rax,8), %xmm8, %xmm9                  #221.76
        vaddsd    8(%rdx,%rax,8), %xmm7, %xmm8                  #227.72
        vaddsd    816(%r11,%rax,8), %xmm21, %xmm22              #230.56
        vaddsd    816(%r14,%rax,8), %xmm26, %xmm27              #231.56
        vaddsd    816(%r13,%rax,8), %xmm31, %xmm1               #232.56
        vmulsd    %xmm9, %xmm0, %xmm10                          #221.76
        vaddsd    816(%r12,%rax,8), %xmm5, %xmm6                #233.56
        vaddsd    8(%r10,%rax,8), %xmm17, %xmm18                #229.72
        vmulsd    %xmm8, %xmm0, %xmm9                           #227.72
        vaddsd    8(%r11,%rax,8), %xmm22, %xmm23                #230.72
        vaddsd    8(%r14,%rax,8), %xmm27, %xmm28                #231.72
        vaddsd    8(%r13,%rax,8), %xmm1, %xmm2                  #232.72
        vaddsd    8(%r12,%rax,8), %xmm6, %xmm7                  #233.72
        vmulsd    %xmm18, %xmm0, %xmm19                         #229.72
        vmulsd    %xmm23, %xmm0, %xmm24                         #230.72
        vmulsd    %xmm28, %xmm0, %xmm29                         #231.72
        vmulsd    %xmm2, %xmm0, %xmm3                           #232.72
        vmulsd    %xmm7, %xmm0, %xmm8                           #233.72
        vmovsd    %xmm10, 808(%r15,%rax,8)                      #221.1
        movq      304(%rsp), %r15                               #228.24[spill]
        vmovsd    %xmm9, 808(%rdx,%rax,8)                       #227.1
        vmovsd    800(%rbx,%rax,8), %xmm9                       #234.24
        vmovsd    800(%r15,%rax,8), %xmm10                      #228.24
        vmovsd    %xmm19, 808(%r10,%rax,8)                      #229.1
        vmovsd    %xmm24, 808(%r11,%rax,8)                      #230.1
        vmovsd    %xmm29, 808(%r14,%rax,8)                      #231.1
        vmovsd    %xmm3, 808(%r13,%rax,8)                       #232.1
        vmovsd    %xmm8, 808(%r12,%rax,8)                       #233.1
        vaddsd    1608(%r15,%rax,8), %xmm10, %xmm11             #228.40
        vaddsd    1608(%rbx,%rax,8), %xmm9, %xmm10              #234.40
        vaddsd    816(%r15,%rax,8), %xmm11, %xmm12              #228.56
        vaddsd    816(%rbx,%rax,8), %xmm10, %xmm11              #234.56
        vaddsd    8(%r15,%rax,8), %xmm12, %xmm13                #228.72
        .byte     144                                           #234.72
        vaddsd    8(%rbx,%rax,8), %xmm11, %xmm12                #234.72
        vmulsd    %xmm13, %xmm0, %xmm14                         #228.72
        vmulsd    %xmm12, %xmm0, %xmm13                         #234.72
        vmovsd    %xmm14, 808(%r15,%rax,8)                      #228.1
        vmovsd    %xmm13, 808(%rbx,%rax,8)                      #234.1
        incq      %rax                                          #206.11
        cmpq      $98, %rax                                     #206.11
        jb        ..B1.46       # Prob 98%                      #206.11
                                # LOE rax rdx rcx rbx rsi rdi r8 r9 r10 r11 r12 r13 r14 xmm0
..B1.47:                        # Preds ..B1.46
                                # Execution count [2.78e+01]
        movq      160(%rsp), %r15                               #236.3[spill]
        movq      144(%rsp), %rax                               #236.3[spill]
        movq      %rax, 800(%r15)                               #236.3
        movl      152(%rsp), %eax                               #202.5[spill]
        incl      %eax                                          #202.5
        movl      %eax, 152(%rsp)                               #202.5[spill]
        cmpl      136(%rsp), %eax                               #202.5[spill]
        movq      168(%rsp), %rax                               #237.18[spill]
        movq      1592(%rax), %r15                              #237.18
        movq      %r15, 1600(%rax)                              #237.1
        movq      176(%rsp), %rax                               #238.18[spill]
        movq      1592(%rax), %r15                              #238.18
        movq      %r15, 1600(%rax)                              #238.1
        movq      184(%rsp), %rax                               #239.18[spill]
        movq      1592(%rax), %r15                              #239.18
        movq      %r15, 1600(%rax)                              #239.1
        movq      192(%rsp), %rax                               #240.18[spill]
        movq      1592(%rax), %r15                              #240.18
        movq      %r15, 1600(%rax)                              #240.1
        movq      200(%rsp), %rax                               #241.18[spill]
        movq      1592(%rax), %r15                              #241.18
        movq      %r15, 1600(%rax)                              #241.1
        movq      208(%rsp), %rax                               #242.18[spill]
        movq      1592(%rax), %r15                              #242.18
        movq      %r15, 1600(%rax)                              #242.1
        movq      216(%rsp), %rax                               #243.18[spill]
        movq      1592(%rax), %r15                              #243.18
        movq      %r15, 1600(%rax)                              #243.1
        movq      224(%rsp), %rax                               #244.18[spill]
        movq      1592(%rax), %r15                              #244.18
        movq      %r15, 1600(%rax)                              #244.1
        movq      232(%rsp), %rax                               #245.18[spill]
        movq      1592(%rax), %r15                              #245.18
        movq      %r15, 1600(%rax)                              #245.1
        movq      312(%rsp), %rax                               #246.18[spill]
        movq      1592(%rax), %r15                              #246.18
        movq      %r15, 1600(%rax)                              #246.1
        movq      320(%rsp), %rax                               #247.18[spill]
        movq      1592(%rax), %r15                              #247.18
        movq      %r15, 1600(%rax)                              #247.1
        movq      1592(%r8), %rax                               #249.18
        movq      %rax, 1600(%r8)                               #249.1
        movq      1592(%rsi), %rax                              #251.18
        movq      %rax, 1600(%rsi)                              #251.1
        movq      1592(%rdx), %rax                              #253.17
        movq      1592(%r9), %r15                               #248.18
        movq      %rax, 1600(%rdx)                              #253.1
        movq      %r15, 1600(%r9)                               #248.1
        movq      304(%rsp), %rax                               #254.17[spill]
        movq      1592(%rdi), %r15                              #250.18
        movq      %r15, 1600(%rdi)                              #250.1
        movq      1592(%rcx), %r15                              #252.17
        movq      %r15, 1600(%rcx)                              #252.1
        movq      1592(%rax), %r15                              #254.17
        movq      %r15, 1600(%rax)                              #254.1
        movq      1592(%r10), %r15                              #255.17
        movq      1592(%r11), %rax                              #256.17
        movq      %r15, 1600(%r10)                              #255.1
        movq      %rax, 1600(%r11)                              #256.1
        movq      1592(%r14), %r15                              #257.17
        movq      1592(%r13), %rax                              #258.17
        movq      %r15, 1600(%r14)                              #257.1
        movq      %rax, 1600(%r13)                              #258.1
        movq      1592(%r12), %r15                              #259.17
        movq      1592(%rbx), %rax                              #260.17
        movq      %r15, 1600(%r12)                              #259.1
        movq      %rax, 1600(%rbx)                              #260.1
        jb        ..B1.42       # Prob 82%                      #202.5
                                # LOE rdx rcx rbx rsi rdi r8 r9 r10 r11 r12 r13 r14 xmm0
..B1.48:                        # Preds ..B1.47
                                # Execution count [5.10e+00]
        movl      136(%rsp), %r14d                              #[spill]
        movq      160(%rsp), %r15                               #[spill]
                                # LOE rbx r12 r13 r15 r14d
..B1.49:                        # Preds ..B1.52 ..B1.48
                                # Execution count [5.56e+00]
        movl      $1, %edi                                      #264.15
        lea       16(%rsp), %rsi                                #264.15
..___tag_value_main.251:
#       clock_gettime(clockid_t, timespec *)
        call      clock_gettime                                 #264.15
..___tag_value_main.252:
                                # LOE rbx r12 r13 r15 r14d
..B1.50:                        # Preds ..B1.49
                                # Execution count [5.56e+00]
        vxorpd    %xmm0, %xmm0, %xmm0                           #264.15
        vxorpd    %xmm16, %xmm16, %xmm16                        #264.15
        vcvtsi2sdq 24(%rsp), %xmm0, %xmm0                       #264.15
        vcvtsi2sdq 16(%rsp), %xmm16, %xmm16                     #264.15
        vfmadd231sd .L_2il0floatpacket.0(%rip), %xmm0, %xmm16   #264.15
        addl      %r14d, %r14d                                  #265.19
        vmovsd    .L_2il0floatpacket.3(%rip), %xmm1             #266.30
        vsubsd    56(%rsp), %xmm16, %xmm0                       #266.20[spill]
        vcomisd   %xmm0, %xmm1                                  #266.30
        jbe       ..B1.54       # Prob 18%                      #266.30
                                # LOE rbx r12 r13 r15 r14d xmm0
..B1.51:                        # Preds ..B1.50
                                # Execution count [4.56e+00]
        movl      $1, %edi                                      #200.17
        lea       (%rsp), %rsi                                  #200.17
..___tag_value_main.254:
#       clock_gettime(clockid_t, timespec *)
        call      clock_gettime                                 #200.17
..___tag_value_main.255:
                                # LOE rbx r12 r13 r15 r14d
..B1.52:                        # Preds ..B1.51
                                # Execution count [4.56e+00]
        vxorpd    %xmm0, %xmm0, %xmm0                           #200.17
        vxorpd    %xmm1, %xmm1, %xmm1                           #200.17
        vcvtsi2sdq 8(%rsp), %xmm0, %xmm0                        #200.17
        vcvtsi2sdq (%rsp), %xmm1, %xmm1                         #200.17
        vfmadd231sd .L_2il0floatpacket.0(%rip), %xmm0, %xmm1    #200.17
        vmovsd    %xmm1, 56(%rsp)                               #200.17[spill]
        testl     %r14d, %r14d                                  #202.22
        jle       ..B1.49       # Prob 10%                      #202.22
        jmp       ..B1.40       # Prob 100%                     #202.22
                                # LOE rbx r12 r13 r15 r14d
..B1.54:                        # Preds ..B1.50
                                # Execution count [1.00e+00]: Infreq
        movl      %r14d, %edx                                   #275.3
        vxorpd    %xmm1, %xmm1, %xmm1                           #275.3
        shrl      $31, %edx                                     #275.3
        movl      $.L_2__STRING.4, %edi                         #275.3
        addl      %edx, %r14d                                   #275.3
        movl      $1, %eax                                      #275.3
        sarl      $1, %r14d                                     #275.3
        vcvtsi2sd %r14d, %xmm1, %xmm1                           #275.3
        vmulsd    .L_2il0floatpacket.2(%rip), %xmm0, %xmm0      #275.3
        vdivsd    %xmm1, %xmm0, %xmm0                           #275.3
        movq      128(%rsp), %r13                               #[spill]
        movq      80(%rsp), %rbx                                #[spill]
        movq      216(%rsp), %r12                               #[spill]
..___tag_value_main.259:
#       printf(const char *, ...)
        call      printf                                        #275.3
..___tag_value_main.260:
                                # LOE rbx r12 r13 r15
..B1.55:                        # Preds ..B1.54
                                # Execution count [6.74e-01]: Infreq
        movq      %r15, %rdi                                    #276.3
#       operator delete[](void *)
        call      _ZdaPv                                        #276.3
                                # LOE rbx r12 r13
..B1.56:                        # Preds ..B1.55
                                # Execution count [6.74e-01]: Infreq
        movq      168(%rsp), %rdi                               #277.1[spill]
#       operator delete[](void *)
        call      _ZdaPv                                        #277.1
                                # LOE rbx r12 r13
..B1.57:                        # Preds ..B1.56
                                # Execution count [6.74e-01]: Infreq
        movq      176(%rsp), %rdi                               #278.1[spill]
#       operator delete[](void *)
        call      _ZdaPv                                        #278.1
                                # LOE rbx r12 r13
..B1.58:                        # Preds ..B1.57
                                # Execution count [6.74e-01]: Infreq
        movq      184(%rsp), %rdi                               #279.1[spill]
#       operator delete[](void *)
        call      _ZdaPv                                        #279.1
                                # LOE rbx r12 r13
..B1.59:                        # Preds ..B1.58
                                # Execution count [6.74e-01]: Infreq
        movq      192(%rsp), %rdi                               #280.1[spill]
#       operator delete[](void *)
        call      _ZdaPv                                        #280.1
                                # LOE rbx r12 r13
..B1.60:                        # Preds ..B1.59
                                # Execution count [6.74e-01]: Infreq
        movq      200(%rsp), %rdi                               #281.1[spill]
#       operator delete[](void *)
        call      _ZdaPv                                        #281.1
                                # LOE rbx r12 r13
..B1.61:                        # Preds ..B1.60
                                # Execution count [6.74e-01]: Infreq
        movq      208(%rsp), %rdi                               #282.1[spill]
#       operator delete[](void *)
        call      _ZdaPv                                        #282.1
                                # LOE rbx r12 r13
..B1.62:                        # Preds ..B1.61
                                # Execution count [6.74e-01]: Infreq
        movq      %r12, %rdi                                    #283.1
#       operator delete[](void *)
        call      _ZdaPv                                        #283.1
                                # LOE rbx r13
..B1.63:                        # Preds ..B1.62
                                # Execution count [6.74e-01]: Infreq
        movq      224(%rsp), %rdi                               #284.1[spill]
#       operator delete[](void *)
        call      _ZdaPv                                        #284.1
                                # LOE rbx r13
..B1.64:                        # Preds ..B1.63
                                # Execution count [6.74e-01]: Infreq
        movq      232(%rsp), %rdi                               #285.1[spill]
#       operator delete[](void *)
        call      _ZdaPv                                        #285.1
                                # LOE rbx r13
..B1.65:                        # Preds ..B1.64
                                # Execution count [6.74e-01]: Infreq
        movq      312(%rsp), %rdi                               #286.1[spill]
#       operator delete[](void *)
        call      _ZdaPv                                        #286.1
                                # LOE rbx r13
..B1.66:                        # Preds ..B1.65
                                # Execution count [6.74e-01]: Infreq
        movq      320(%rsp), %rdi                               #287.1[spill]
#       operator delete[](void *)
        call      _ZdaPv                                        #287.1
                                # LOE rbx r13
..B1.67:                        # Preds ..B1.66
                                # Execution count [6.74e-01]: Infreq
        movq      64(%rsp), %rdi                                #288.1[spill]
#       operator delete[](void *)
        call      _ZdaPv                                        #288.1
                                # LOE rbx r13
..B1.68:                        # Preds ..B1.67
                                # Execution count [6.74e-01]: Infreq
        movq      72(%rsp), %rdi                                #289.1[spill]
#       operator delete[](void *)
        call      _ZdaPv                                        #289.1
                                # LOE rbx r13
..B1.69:                        # Preds ..B1.68
                                # Execution count [6.74e-01]: Infreq
        movq      %rbx, %rdi                                    #290.1
#       operator delete[](void *)
        call      _ZdaPv                                        #290.1
                                # LOE r13
..B1.70:                        # Preds ..B1.69
                                # Execution count [6.74e-01]: Infreq
        movq      88(%rsp), %rdi                                #291.1[spill]
#       operator delete[](void *)
        call      _ZdaPv                                        #291.1
                                # LOE r13
..B1.71:                        # Preds ..B1.70
                                # Execution count [6.74e-01]: Infreq
        movq      96(%rsp), %rdi                                #292.1[spill]
#       operator delete[](void *)
        call      _ZdaPv                                        #292.1
                                # LOE r13
..B1.72:                        # Preds ..B1.71
                                # Execution count [6.74e-01]: Infreq
        movq      104(%rsp), %rdi                               #293.1[spill]
#       operator delete[](void *)
        call      _ZdaPv                                        #293.1
                                # LOE r13
..B1.73:                        # Preds ..B1.72
                                # Execution count [6.74e-01]: Infreq
        movq      304(%rsp), %rdi                               #294.1[spill]
#       operator delete[](void *)
        call      _ZdaPv                                        #294.1
                                # LOE r13
..B1.74:                        # Preds ..B1.73
                                # Execution count [6.74e-01]: Infreq
        movq      112(%rsp), %rdi                               #295.1[spill]
#       operator delete[](void *)
        call      _ZdaPv                                        #295.1
                                # LOE r13
..B1.75:                        # Preds ..B1.74
                                # Execution count [6.74e-01]: Infreq
        movq      120(%rsp), %rdi                               #296.1[spill]
#       operator delete[](void *)
        call      _ZdaPv                                        #296.1
                                # LOE r13
..B1.76:                        # Preds ..B1.75
                                # Execution count [6.74e-01]: Infreq
        movq      %r13, %rdi                                    #297.1
#       operator delete[](void *)
        call      _ZdaPv                                        #297.1
                                # LOE
..B1.77:                        # Preds ..B1.76
                                # Execution count [6.74e-01]: Infreq
        movq      40(%rsp), %rdi                                #298.1[spill]
#       operator delete[](void *)
        call      _ZdaPv                                        #298.1
                                # LOE
..B1.78:                        # Preds ..B1.77
                                # Execution count [6.74e-01]: Infreq
        movq      48(%rsp), %rdi                                #299.1[spill]
#       operator delete[](void *)
        call      _ZdaPv                                        #299.1
                                # LOE
..B1.79:                        # Preds ..B1.78
                                # Execution count [6.74e-01]: Infreq
        movq      32(%rsp), %rdi                                #300.1[spill]
#       operator delete[](void *)
        call      _ZdaPv                                        #300.1
                                # LOE
..B1.80:                        # Preds ..B1.79
                                # Execution count [1.00e+00]: Infreq
        xorl      %eax, %eax                                    #301.10
        addq      $344, %rsp                                    #301.10
	.cfi_restore 3
        popq      %rbx                                          #301.10
	.cfi_restore 15
        popq      %r15                                          #301.10
	.cfi_restore 14
        popq      %r14                                          #301.10
	.cfi_restore 13
        popq      %r13                                          #301.10
	.cfi_restore 12
        popq      %r12                                          #301.10
        movq      %rbp, %rsp                                    #301.10
        popq      %rbp                                          #301.10
	.cfi_def_cfa 7, 8
	.cfi_restore 6
        ret                                                     #301.10
        .align    16,0x90
                                # LOE
	.cfi_endproc
# mark_end;
	.type	main,@function
	.size	main,.-main
..LNmain.0:
	.data
# -- End  main
	.text
.L_2__routine_start__Z12getTimeStampv_1:
# -- Begin  _Z12getTimeStampv
	.text
# mark_begin;
       .align    16,0x90
	.globl _Z12getTimeStampv
# --- getTimeStamp()
_Z12getTimeStampv:
..B2.1:                         # Preds ..B2.0
                                # Execution count [1.00e+00]
	.cfi_startproc
	.cfi_personality 0x3,__gxx_personality_v0
..___tag_value__Z12getTimeStampv.291:
..L292:
                                                        #4.1
        subq      $24, %rsp                                     #4.1
	.cfi_def_cfa_offset 32
        movl      $1, %edi                                      #6.3
        lea       (%rsp), %rsi                                  #6.3
..___tag_value__Z12getTimeStampv.294:
#       clock_gettime(clockid_t, timespec *)
        call      clock_gettime                                 #6.3
..___tag_value__Z12getTimeStampv.295:
                                # LOE rbx rbp r12 r13 r14 r15
..B2.2:                         # Preds ..B2.1
                                # Execution count [1.00e+00]
        vxorpd    %xmm0, %xmm0, %xmm0                           #7.38
        vxorpd    %xmm1, %xmm1, %xmm1                           #7.18
        vcvtsi2sdq 8(%rsp), %xmm0, %xmm0                        #7.38
        vcvtsi2sdq (%rsp), %xmm1, %xmm1                         #7.18
        vfmadd132sd .L_2il0floatpacket.0(%rip), %xmm1, %xmm0    #7.51
        addq      $24, %rsp                                     #7.51
	.cfi_def_cfa_offset 8
        ret                                                     #7.51
        .align    16,0x90
                                # LOE
	.cfi_endproc
# mark_end;
	.type	_Z12getTimeStampv,@function
	.size	_Z12getTimeStampv,.-_Z12getTimeStampv
..LN_Z12getTimeStampv.1:
	.data
# -- End  _Z12getTimeStampv
	.text
.L_2__routine_start__Z17getTimeResolutionv_2:
# -- Begin  _Z17getTimeResolutionv
	.text
# mark_begin;
       .align    16,0x90
	.globl _Z17getTimeResolutionv
# --- getTimeResolution()
_Z17getTimeResolutionv:
..B3.1:                         # Preds ..B3.0
                                # Execution count [1.00e+00]
	.cfi_startproc
	.cfi_personality 0x3,__gxx_personality_v0
..___tag_value__Z17getTimeResolutionv.298:
..L299:
                                                        #11.1
        subq      $24, %rsp                                     #11.1
	.cfi_def_cfa_offset 32
        movl      $1, %edi                                      #13.3
        lea       (%rsp), %rsi                                  #13.3
..___tag_value__Z17getTimeResolutionv.301:
#       clock_getres(clockid_t, timespec *)
        call      clock_getres                                  #13.3
..___tag_value__Z17getTimeResolutionv.302:
                                # LOE rbx rbp r12 r13 r14 r15
..B3.2:                         # Preds ..B3.1
                                # Execution count [1.00e+00]
        vxorpd    %xmm0, %xmm0, %xmm0                           #14.38
        vxorpd    %xmm1, %xmm1, %xmm1                           #14.18
        vcvtsi2sdq 8(%rsp), %xmm0, %xmm0                        #14.38
        vcvtsi2sdq (%rsp), %xmm1, %xmm1                         #14.18
        vfmadd132sd .L_2il0floatpacket.0(%rip), %xmm1, %xmm0    #14.51
        addq      $24, %rsp                                     #14.51
	.cfi_def_cfa_offset 8
        ret                                                     #14.51
        .align    16,0x90
                                # LOE
	.cfi_endproc
# mark_end;
	.type	_Z17getTimeResolutionv,@function
	.size	_Z17getTimeResolutionv,.-_Z17getTimeResolutionv
..LN_Z17getTimeResolutionv.2:
	.data
# -- End  _Z17getTimeResolutionv
	.text
.L_2__routine_start__Z13getTimeStamp_v_3:
# -- Begin  _Z13getTimeStamp_v
	.text
# mark_begin;
       .align    16,0x90
	.globl _Z13getTimeStamp_v
# --- getTimeStamp_()
_Z13getTimeStamp_v:
..B4.1:                         # Preds ..B4.0
                                # Execution count [1.00e+00]
	.cfi_startproc
	.cfi_personality 0x3,__gxx_personality_v0
..___tag_value__Z13getTimeStamp_v.305:
..L306:
                                                        #18.1
        subq      $24, %rsp                                     #18.1
	.cfi_def_cfa_offset 32
        movl      $1, %edi                                      #19.10
        lea       (%rsp), %rsi                                  #19.10
..___tag_value__Z13getTimeStamp_v.308:
#       clock_gettime(clockid_t, timespec *)
        call      clock_gettime                                 #19.10
..___tag_value__Z13getTimeStamp_v.309:
                                # LOE rbx rbp r12 r13 r14 r15
..B4.2:                         # Preds ..B4.1
                                # Execution count [1.00e+00]
        vxorpd    %xmm0, %xmm0, %xmm0                           #19.10
        vxorpd    %xmm1, %xmm1, %xmm1                           #19.10
        vcvtsi2sdq 8(%rsp), %xmm0, %xmm0                        #19.10
        vcvtsi2sdq (%rsp), %xmm1, %xmm1                         #19.10
        vfmadd132sd .L_2il0floatpacket.0(%rip), %xmm1, %xmm0    #19.10
        addq      $24, %rsp                                     #19.10
	.cfi_def_cfa_offset 8
        ret                                                     #19.10
        .align    16,0x90
                                # LOE
	.cfi_endproc
# mark_end;
	.type	_Z13getTimeStamp_v,@function
	.size	_Z13getTimeStamp_v,.-_Z13getTimeStamp_v
..LN_Z13getTimeStamp_v.3:
	.data
# -- End  _Z13getTimeStamp_v
	.text
.L_2__routine_start__Z13gettimestamp_v_4:
# -- Begin  _Z13gettimestamp_v
	.text
# mark_begin;
       .align    16,0x90
	.globl _Z13gettimestamp_v
# --- gettimestamp_()
_Z13gettimestamp_v:
..B5.1:                         # Preds ..B5.0
                                # Execution count [1.00e+00]
	.cfi_startproc
	.cfi_personality 0x3,__gxx_personality_v0
..___tag_value__Z13gettimestamp_v.312:
..L313:
                                                        #23.1
        subq      $24, %rsp                                     #23.1
	.cfi_def_cfa_offset 32
        movl      $1, %edi                                      #24.10
        lea       (%rsp), %rsi                                  #24.10
..___tag_value__Z13gettimestamp_v.315:
#       clock_gettime(clockid_t, timespec *)
        call      clock_gettime                                 #24.10
..___tag_value__Z13gettimestamp_v.316:
                                # LOE rbx rbp r12 r13 r14 r15
..B5.2:                         # Preds ..B5.1
                                # Execution count [1.00e+00]
        vxorpd    %xmm0, %xmm0, %xmm0                           #24.10
        vxorpd    %xmm1, %xmm1, %xmm1                           #24.10
        vcvtsi2sdq 8(%rsp), %xmm0, %xmm0                        #24.10
        vcvtsi2sdq (%rsp), %xmm1, %xmm1                         #24.10
        vfmadd132sd .L_2il0floatpacket.0(%rip), %xmm1, %xmm0    #24.10
        addq      $24, %rsp                                     #24.10
	.cfi_def_cfa_offset 8
        ret                                                     #24.10
        .align    16,0x90
                                # LOE
	.cfi_endproc
# mark_end;
	.type	_Z13gettimestamp_v,@function
	.size	_Z13gettimestamp_v,.-_Z13gettimestamp_v
..LN_Z13gettimestamp_v.4:
	.data
# -- End  _Z13gettimestamp_v
	.text
.L_2__routine_start__Z5dummyPd_5:
# -- Begin  _Z5dummyPd
	.text
# mark_begin;
       .align    16,0x90
	.globl _Z5dummyPd
# --- dummy(double *)
_Z5dummyPd:
# parameter 1: %rdi
..B6.1:                         # Preds ..B6.0
                                # Execution count [1.00e+00]
	.cfi_startproc
	.cfi_personality 0x3,__gxx_personality_v0
..___tag_value__Z5dummyPd.319:
..L320:
                                                        #27.23
        ret                                                     #27.24
        .align    16,0x90
                                # LOE
	.cfi_endproc
# mark_end;
	.type	_Z5dummyPd,@function
	.size	_Z5dummyPd,.-_Z5dummyPd
..LN_Z5dummyPd.5:
	.data
# -- End  _Z5dummyPd
	.text
.L_2__routine_start__Z24perfevent_paranoid_valuev_6:
# -- Begin  _Z24perfevent_paranoid_valuev
	.text
# mark_begin;
       .align    16,0x90
	.globl _Z24perfevent_paranoid_valuev
# --- perfevent_paranoid_value()
_Z24perfevent_paranoid_valuev:
..B7.1:                         # Preds ..B7.0
                                # Execution count [1.00e+00]
	.cfi_startproc
	.cfi_personality 0x3,__gxx_personality_v0
..___tag_value__Z24perfevent_paranoid_valuev.322:
..L323:
                                                        #36.1
        pushq     %rbx                                          #36.1
	.cfi_def_cfa_offset 16
	.cfi_offset 3, -16
        pushq     %rbp                                          #36.1
	.cfi_def_cfa_offset 24
	.cfi_offset 6, -24
        subq      $104, %rsp                                    #36.1
	.cfi_def_cfa_offset 128
        movl      $.L_2__STRING.1, %edi                         #40.10
        movl      $.L_2__STRING.2, %esi                         #40.10
        movl      $3, %ebp                                      #38.18
..___tag_value__Z24perfevent_paranoid_valuev.329:
#       fopen(const char *, const char *)
        call      fopen                                         #40.10
..___tag_value__Z24perfevent_paranoid_valuev.330:
                                # LOE rax r12 r13 r14 r15 ebp
..B7.13:                        # Preds ..B7.1
                                # Execution count [1.00e+00]
        movq      %rax, %rbx                                    #40.10
                                # LOE rbx r12 r13 r14 r15 ebp
..B7.2:                         # Preds ..B7.13
                                # Execution count [1.00e+00]
        testq     %rbx, %rbx                                    #41.15
        je        ..B7.9        # Prob 5%                       #41.15
                                # LOE rbx r12 r13 r14 r15 ebp
..B7.3:                         # Preds ..B7.2
                                # Execution count [9.50e-01]
        movl      $1, %esi                                      #47.19
        lea       (%rsp), %rdi                                  #47.19
        movl      $100, %edx                                    #47.19
        movq      %rbx, %rcx                                    #47.19
..___tag_value__Z24perfevent_paranoid_valuev.331:
#       fread(void *, size_t, size_t, FILE *)
        call      fread                                         #47.19
..___tag_value__Z24perfevent_paranoid_valuev.332:
                                # LOE rax rbx r12 r13 r14 r15 ebp
..B7.4:                         # Preds ..B7.3
                                # Execution count [9.50e-01]
        testq     %rax, %rax                                    #48.16
        jbe       ..B7.7        # Prob 50%                      #48.16
                                # LOE rbx r12 r13 r14 r15 ebp
..B7.5:                         # Preds ..B7.4
                                # Execution count [4.75e-01]
        xorl      %esi, %esi                                    #50.20
        lea       (%rsp), %rdi                                  #50.20
        movl      $10, %edx                                     #50.20
..___tag_value__Z24perfevent_paranoid_valuev.333:
#       strtol(const char *, char **, int)
        call      strtol                                        #50.20
..___tag_value__Z24perfevent_paranoid_valuev.334:
                                # LOE rax rbx r12 r13 r14 r15
..B7.6:                         # Preds ..B7.5
                                # Execution count [4.75e-01]
        movl      %eax, %ebp                                    #50.20
                                # LOE rbx r12 r13 r14 r15 ebp
..B7.7:                         # Preds ..B7.6 ..B7.4
                                # Execution count [9.50e-01]
        movq      %rbx, %rdi                                    #52.5
..___tag_value__Z24perfevent_paranoid_valuev.335:
#       fclose(FILE *)
        call      fclose                                        #52.5
..___tag_value__Z24perfevent_paranoid_valuev.336:
                                # LOE r12 r13 r14 r15 ebp
..B7.8:                         # Preds ..B7.7
                                # Execution count [9.50e-01]
        movl      %ebp, %eax                                    #53.12
        addq      $104, %rsp                                    #53.12
	.cfi_def_cfa_offset 24
	.cfi_restore 6
        popq      %rbp                                          #53.12
	.cfi_def_cfa_offset 16
	.cfi_restore 3
        popq      %rbx                                          #53.12
	.cfi_def_cfa_offset 8
        ret                                                     #53.12
	.cfi_def_cfa_offset 128
	.cfi_offset 3, -16
	.cfi_offset 6, -24
                                # LOE
..B7.9:                         # Preds ..B7.2
                                # Execution count [5.04e-02]: Infreq
..___tag_value__Z24perfevent_paranoid_valuev.345:
#       __errno_location()
        call      __errno_location                              #43.9
..___tag_value__Z24perfevent_paranoid_valuev.346:
                                # LOE rax r12 r13 r14 r15
..B7.17:                        # Preds ..B7.9
                                # Execution count [5.04e-02]: Infreq
        movl      $1, (%rax)                                    #43.9
..___tag_value__Z24perfevent_paranoid_valuev.347:
#       __errno_location()
        call      __errno_location                              #44.130
..___tag_value__Z24perfevent_paranoid_valuev.348:
                                # LOE rax r12 r13 r14 r15
..B7.16:                        # Preds ..B7.17
                                # Execution count [5.04e-02]: Infreq
        movl      $.L_2__STRING.3, %esi                         #44.9
        movq      stderr(%rip), %rdi                            #44.9
        movl      (%rax), %edx                                  #44.9
        xorl      %eax, %eax                                    #44.9
..___tag_value__Z24perfevent_paranoid_valuev.349:
#       fprintf(FILE *, const char *, ...)
        call      fprintf                                       #44.9
..___tag_value__Z24perfevent_paranoid_valuev.350:
                                # LOE r12 r13 r14 r15
..B7.10:                        # Preds ..B7.16
                                # Execution count [5.04e-02]: Infreq
        movl      $3, %eax                                      #45.16
        addq      $104, %rsp                                    #45.16
	.cfi_def_cfa_offset 24
	.cfi_restore 6
        popq      %rbp                                          #45.16
	.cfi_def_cfa_offset 16
	.cfi_restore 3
        popq      %rbx                                          #45.16
	.cfi_def_cfa_offset 8
        ret                                                     #45.16
        .align    16,0x90
                                # LOE
	.cfi_endproc
# mark_end;
	.type	_Z24perfevent_paranoid_valuev,@function
	.size	_Z24perfevent_paranoid_valuev,.-_Z24perfevent_paranoid_valuev
..LN_Z24perfevent_paranoid_valuev.6:
	.data
# -- End  _Z24perfevent_paranoid_valuev
	.text
.L_2__routine_start__Z15init_perf_eventP15perf_event_attr_7:
# -- Begin  _Z15init_perf_eventP15perf_event_attr
	.text
# mark_begin;
       .align    16,0x90
	.globl _Z15init_perf_eventP15perf_event_attr
# --- init_perf_event(perf_event_attr *)
_Z15init_perf_eventP15perf_event_attr:
# parameter 1: %rdi
..B8.1:                         # Preds ..B8.0
                                # Execution count [1.00e+00]
	.cfi_startproc
	.cfi_personality 0x3,__gxx_personality_v0
..___tag_value__Z15init_perf_eventP15perf_event_attr.357:
..L358:
                                                        #19.1
        pushq     %r15                                          #19.1
	.cfi_def_cfa_offset 16
	.cfi_offset 15, -16
        xorl      %esi, %esi                                    #20.5
        movl      $120, %edx                                    #20.5
        movq      %rdi, %r15                                    #19.1
..___tag_value__Z15init_perf_eventP15perf_event_attr.361:
#       memset(void *, int, size_t)
        call      memset                                        #20.5
..___tag_value__Z15init_perf_eventP15perf_event_attr.362:
                                # LOE rbx rbp r12 r13 r14 r15
..B8.2:                         # Preds ..B8.1
                                # Execution count [1.00e+00]
        xorl      %edx, %edx                                    #27.19
        movl      $-1, %ecx                                     #27.19
        movl      $298, %edi                                    #27.19
        movq      %r15, %rsi                                    #27.19
        movl      %ecx, %r8d                                    #27.19
        xorl      %r9d, %r9d                                    #27.19
        xorl      %eax, %eax                                    #27.19
        movl      $120, 4(%r15)                                 #21.5
        orb       $33, 40(%r15)                                 #23.5
        movl      $0, (%r15)                                    #24.5
        movq      $0, 8(%r15)                                   #25.5
..___tag_value__Z15init_perf_eventP15perf_event_attr.363:
#       syscall(long, ...)
        call      syscall                                       #27.19
..___tag_value__Z15init_perf_eventP15perf_event_attr.364:
                                # LOE rax rbx rbp r12 r13 r14
..B8.3:                         # Preds ..B8.2
                                # Execution count [1.00e+00]
        testl     %eax, %eax                                    #28.19
        jl        ..B8.5        # Prob 2%                       #28.19
                                # LOE rbx rbp r12 r13 r14 eax
..B8.4:                         # Preds ..B8.3
                                # Execution count [9.75e-01]
	.cfi_restore 15
        popq      %r15                                          #32.12
	.cfi_def_cfa_offset 8
        ret                                                     #32.12
	.cfi_def_cfa_offset 16
	.cfi_offset 15, -16
                                # LOE
..B8.5:                         # Preds ..B8.3
                                # Execution count [2.51e-02]: Infreq
        movl      $.L_2__STRING.0, %esi                         #29.9
        movl      %eax, %edx                                    #29.9
        xorl      %eax, %eax                                    #29.9
        movq      stderr(%rip), %rdi                            #29.9
..___tag_value__Z15init_perf_eventP15perf_event_attr.369:
#       fprintf(FILE *, const char *, ...)
        call      fprintf                                       #29.9
..___tag_value__Z15init_perf_eventP15perf_event_attr.370:
                                # LOE
..B8.6:                         # Preds ..B8.5
                                # Execution count [2.51e-02]: Infreq
        movl      $1, %edi                                      #30.9
..___tag_value__Z15init_perf_eventP15perf_event_attr.371:
#       exit(int)
        call      exit                                          #30.9
..___tag_value__Z15init_perf_eventP15perf_event_attr.372:
        .align    16,0x90
                                # LOE
	.cfi_endproc
# mark_end;
	.type	_Z15init_perf_eventP15perf_event_attr,@function
	.size	_Z15init_perf_eventP15perf_event_attr,.-_Z15init_perf_eventP15perf_event_attr
..LN_Z15init_perf_eventP15perf_event_attr.7:
	.data
# -- End  _Z15init_perf_eventP15perf_event_attr
	.section .rodata, "a"
	.align 8
	.align 8
.L_2il0floatpacket.0:
	.long	0xe826d695,0x3e112e0b
	.type	.L_2il0floatpacket.0,@object
	.size	.L_2il0floatpacket.0,8
	.align 8
.L_2il0floatpacket.1:
	.long	0x00000000,0x3fd00000
	.type	.L_2il0floatpacket.1,@object
	.size	.L_2il0floatpacket.1,8
	.align 8
.L_2il0floatpacket.2:
	.long	0x343eb1a2,0x41737676
	.type	.L_2il0floatpacket.2,@object
	.size	.L_2il0floatpacket.2,8
	.align 8
.L_2il0floatpacket.3:
	.long	0x00000000,0x3ff00000
	.type	.L_2il0floatpacket.3,@object
	.size	.L_2il0floatpacket.3,8
	.section .rodata.str1.4, "aMS",@progbits,1
	.align 4
	.align 4
.L_2__STRING.4:
	.long	681509
	.type	.L_2__STRING.4,@object
	.size	.L_2__STRING.4,4
	.align 4
.L_2__STRING.1:
	.long	1869770799
	.long	2037591907
	.long	1701523315
	.long	1818586738
	.long	1919250479
	.long	1986355046
	.long	1601465957
	.long	1634886000
	.long	1684631406
	.byte	0
	.type	.L_2__STRING.1,@object
	.size	.L_2__STRING.1,37
	.space 3, 0x00 	# pad
	.align 4
.L_2__STRING.2:
	.word	114
	.type	.L_2__STRING.2,@object
	.size	.L_2__STRING.2,2
	.space 2, 0x00 	# pad
	.align 4
.L_2__STRING.0:
	.long	661545283
	.long	1886330996
	.long	1881173605
	.long	1600549477
	.long	673211494
	.long	170484773
	.byte	0
	.type	.L_2__STRING.0,@object
	.size	.L_2__STRING.0,25
	.section .rodata.str1.32, "aMS",@progbits,1
	.align 32
	.align 32
.L_2__STRING.3:
	.long	1970170188
	.long	1701519480
	.long	1818586738
	.long	1935763488
	.long	544173600
	.long	1718773104
	.long	1702258015
	.long	1931506798
	.long	1869639797
	.long	539915378
	.long	1852727619
	.long	1629516911
	.long	1936024419
	.long	1882136691
	.long	795045746
	.long	796096883
	.long	1852990827
	.long	1882156133
	.long	1600549477
	.long	1852143205
	.long	1634754420
	.long	1869504882
	.long	1158308969
	.long	1330532946
	.long	1680154682
	.byte	0
	.type	.L_2__STRING.3,@object
	.size	.L_2__STRING.3,101
	.data
	.section .note.GNU-stack, ""
# End
